; Function Attrs: mustprogress uwtable
define dso_local void @_ZN5vcpkg29format_name_only_feature_specB5cxx11ENS_10StringViewES0_(ptr dead_on_unwind noalias writable sret(%"class.std::__cxx11::basic_string") align 8 %0, ptr %1, i64 %2, ptr %3, i64 %4) local_unnamed_addr #0 {
  %6 = alloca %"class.fmt::v10::format_arg_store.55", align 16
  %7 = alloca %"struct.vcpkg::StringView", align 8
  %8 = alloca %"struct.vcpkg::StringView", align 8
  store ptr %1, ptr %7, align 8
  %9 = getelementptr inbounds i8, ptr %7, i64 8
  store i64 %2, ptr %9, align 8
  store ptr %3, ptr %8, align 8
  %10 = getelementptr inbounds i8, ptr %8, i64 8
  store i64 %4, ptr %10, align 8
  %11 = ptrtoint ptr %7 to i64
  %12 = ptrtoint ptr %8 to i64
  store i64 %11, ptr %6, align 16, !alias.scope !23
  %.sroa.229.0..sroa_idx.i = getelementptr inbounds i8, ptr %6, i64 8
  store i64 ptrtoint (ptr @_ZN3fmt3v106detail5valueINS0_20basic_format_contextINS0_8appenderEcEEE17format_custom_argIN5vcpkg10StringViewENS0_9formatterIS9_cvEEEEvPvRNS0_26basic_format_parse_contextIcEERS5_ to i64), ptr %.sroa.229.0..sroa_idx.i, align 8, !alias.scope !23
  %13 = getelementptr inbounds i8, ptr %6, i64 16
  store i64 %12, ptr %13, align 16, !alias.scope !23
  %.sroa.231.0..sroa_idx.i = getelementptr inbounds i8, ptr %6, i64 24
  store i64 ptrtoint (ptr @_ZN3fmt3v106detail5valueINS0_20basic_format_contextINS0_8appenderEcEEE17format_custom_argIN5vcpkg10StringViewENS0_9formatterIS9_cvEEEEvPvRNS0_26basic_format_parse_contextIcEERS5_ to i64), ptr %.sroa.231.0..sroa_idx.i, align 8, !alias.scope !23
  call void @_ZN3fmt3v107vformatB5cxx11ENS0_17basic_string_viewIcEENS0_17basic_format_argsINS0_20basic_format_contextINS0_8appenderEcEEEE(ptr dead_on_unwind writable sret(%"class.std::__cxx11::basic_string") align 8 %0, ptr nonnull @.str.1, i64 6, i64 255, ptr nonnull %6)
  ret void
}